target datalayout = "e-m:e-p270:32:32-p271:32:32-p272:64:64-i64:64-i128:128-f80:128-n8:16:32:64-S128"
target triple = "x86_64-unknown-linux-gnu"

%struct.QemuMutex = type { %union.pthread_mutex_t, i8 }
%union.pthread_mutex_t = type { %struct.__pthread_mutex_s }
%struct.__pthread_mutex_s = type { i32, i32, i32, i32, i32, i16, i16, %struct.__pthread_internal_list }
%struct.__pthread_internal_list = type { ptr, ptr }
%struct.QemuLockable = type { ptr, ptr, ptr }

@.str = private unnamed_addr constant [27 x i8] c"../qemu/monitor/qmp-cmds.c\00", align 1
@.str.1 = private unnamed_addr constant [41 x i8] c"There is a dump in process, please wait.\00", align 1
@autostart = external global i32, align 4
@__func__.qmp_cont = private unnamed_addr constant [9 x i8] c"qmp_cont\00", align 1
@.str.2 = private unnamed_addr constant [42 x i8] c"Resetting the Virtual Machine is required\00", align 1
@.str.3 = private unnamed_addr constant [31 x i8] c"Migration is not finalized yet\00", align 1
@job_mutex = external global %struct.QemuMutex, align 8

; Function Attrs: nounwind sspstrong uwtable
define internal void @qemu_lockable_unlock(ptr noundef %x) #0 {
entry:
  %x.addr = alloca ptr, align 8
  store ptr %x, ptr %x.addr, align 8
  %0 = load ptr, ptr %x.addr, align 8
  %unlock = getelementptr inbounds %struct.QemuLockable, ptr %0, i32 0, i32 2
  %1 = load ptr, ptr %unlock, align 8
  %2 = load ptr, ptr %x.addr, align 8
  %object = getelementptr inbounds %struct.QemuLockable, ptr %2, i32 0, i32 0
  %3 = load ptr, ptr %object, align 8
  call void %1(ptr noundef %3)
  ret void
}

; Function Attrs: nounwind sspstrong uwtable
define internal void @glib_autoptr_clear_QemuLockable(ptr noundef %_ptr) #0 {
entry:
  %_ptr.addr = alloca ptr, align 8
  store ptr %_ptr, ptr %_ptr.addr, align 8
  %0 = load ptr, ptr %_ptr.addr, align 8
  %tobool = icmp ne ptr %0, null
  br i1 %tobool, label %if.then, label %if.end

if.then:                                          ; preds = %entry
  %1 = load ptr, ptr %_ptr.addr, align 8
  call void @qemu_lockable_auto_unlock(ptr noundef %1)
  br label %if.end

if.end:                                           ; preds = %if.then, %entry
  ret void
}

; Function Attrs: nounwind sspstrong uwtable
define internal void @qemu_lockable_lock(ptr noundef %x) #0 {
entry:
  %x.addr = alloca ptr, align 8
  store ptr %x, ptr %x.addr, align 8
  %0 = load ptr, ptr %x.addr, align 8
  %lock = getelementptr inbounds %struct.QemuLockable, ptr %0, i32 0, i32 1
  %1 = load ptr, ptr %lock, align 8
  %2 = load ptr, ptr %x.addr, align 8
  %object = getelementptr inbounds %struct.QemuLockable, ptr %2, i32 0, i32 0
  %3 = load ptr, ptr %object, align 8
  call void %1(ptr noundef %3)
  ret void
}

; Function Attrs: nounwind sspstrong uwtable
define internal void @qemu_lockable_auto_unlock(ptr noundef %x) #0 {
entry:
  %x.addr = alloca ptr, align 8
  store ptr %x, ptr %x.addr, align 8
  %0 = load ptr, ptr %x.addr, align 8
  %tobool = icmp ne ptr %0, null
  br i1 %tobool, label %if.then, label %if.end

if.then:                                          ; preds = %entry
  %1 = load ptr, ptr %x.addr, align 8
  call void @qemu_lockable_unlock(ptr noundef %1)
  br label %if.end

if.end:                                           ; preds = %if.then, %entry
  ret void
}

; Function Attrs: nounwind sspstrong uwtable
define internal void @glib_autoptr_cleanup_QemuLockable(ptr noundef %_ptr) #0 {
entry:
  %_ptr.addr = alloca ptr, align 8
  store ptr %_ptr, ptr %_ptr.addr, align 8
  %0 = load ptr, ptr %_ptr.addr, align 8
  %1 = load ptr, ptr %0, align 8
  call void @glib_autoptr_clear_QemuLockable(ptr noundef %1)
  ret void
}

; Function Attrs: nounwind sspstrong uwtable
define internal ptr @qemu_lockable_auto_lock(ptr noundef %x) #0 {
entry:
  %x.addr = alloca ptr, align 8
  store ptr %x, ptr %x.addr, align 8
  %0 = load ptr, ptr %x.addr, align 8
  call void @qemu_lockable_lock(ptr noundef %0)
  %1 = load ptr, ptr %x.addr, align 8
  ret ptr %1
}

; Function Attrs: nounwind sspstrong uwtable
define dso_local void @qmp_cont(ptr noundef %errp) #0 {
entry:
  %errp.addr = alloca ptr, align 8
  %blk = alloca ptr, align 8
  %job = alloca ptr, align 8
  %local_err = alloca ptr, align 8
  %qemu_lockable_auto4 = alloca ptr, align 8
  %.compoundliteral = alloca %struct.QemuLockable, align 8
  store ptr %errp, ptr %errp.addr, align 8
  store ptr null, ptr %local_err, align 8
  %call = call zeroext i1 @qemu_system_dump_in_progress()
  br i1 %call, label %if.then, label %if.end

if.then:                                          ; preds = %entry
  %0 = load ptr, ptr %errp.addr, align 8
  call void (ptr, ptr, i32, ptr, ptr, ...) @error_setg_internal(ptr noundef %0, ptr noundef @.str, i32 noundef 75, ptr noundef @__func__.qmp_cont, ptr noundef @.str.1)
  br label %if.end32

if.end:                                           ; preds = %entry
  %call1 = call zeroext i1 @runstate_needs_reset()
  br i1 %call1, label %if.then2, label %if.else

if.then2:                                         ; preds = %if.end
  %1 = load ptr, ptr %errp.addr, align 8
  call void (ptr, ptr, i32, ptr, ptr, ...) @error_setg_internal(ptr noundef %1, ptr noundef @.str, i32 noundef 80, ptr noundef @__func__.qmp_cont, ptr noundef @.str.2)
  br label %if.end32

if.else:                                          ; preds = %if.end
  %call3 = call zeroext i1 @runstate_check(i32 noundef 12)
  br i1 %call3, label %if.then4, label %if.else5

if.then4:                                         ; preds = %if.else
  br label %if.end32

if.else5:                                         ; preds = %if.else
  %call6 = call zeroext i1 @runstate_check(i32 noundef 7)
  br i1 %call6, label %if.then7, label %if.end8

if.then7:                                         ; preds = %if.else5
  %2 = load ptr, ptr %errp.addr, align 8
  call void (ptr, ptr, i32, ptr, ptr, ...) @error_setg_internal(ptr noundef %2, ptr noundef @.str, i32 noundef 85, ptr noundef @__func__.qmp_cont, ptr noundef @.str.3)
  br label %if.end32

if.end8:                                          ; preds = %if.else5
  br label %if.end9

if.end9:                                          ; preds = %if.end8
  br label %if.end10

if.end10:                                         ; preds = %if.end9
  %call11 = call ptr @blk_next(ptr noundef null)
  store ptr %call11, ptr %blk, align 8
  br label %for.cond

for.cond:                                         ; preds = %for.inc, %if.end10
  %3 = load ptr, ptr %blk, align 8
  %tobool = icmp ne ptr %3, null
  br i1 %tobool, label %for.body, label %for.end

for.body:                                         ; preds = %for.cond
  %4 = load ptr, ptr %blk, align 8
  call void @blk_iostatus_reset(ptr noundef %4)
  br label %for.inc

for.inc:                                          ; preds = %for.body
  %5 = load ptr, ptr %blk, align 8
  %call12 = call ptr @blk_next(ptr noundef %5)
  store ptr %call12, ptr %blk, align 8
  br label %for.cond, !llvm.loop !5

for.end:                                          ; preds = %for.cond
  %object = getelementptr inbounds %struct.QemuLockable, ptr %.compoundliteral, i32 0, i32 0
  store ptr @job_mutex, ptr %object, align 8
  %lock = getelementptr inbounds %struct.QemuLockable, ptr %.compoundliteral, i32 0, i32 1
  store ptr @qemu_mutex_lock, ptr %lock, align 8
  %unlock = getelementptr inbounds %struct.QemuLockable, ptr %.compoundliteral, i32 0, i32 2
  store ptr @qemu_mutex_unlock, ptr %unlock, align 8
  %call13 = call ptr @qemu_lockable_auto_lock(ptr noundef %.compoundliteral)
  store ptr %call13, ptr %qemu_lockable_auto4, align 8
  br label %for.cond14

for.cond14:                                       ; preds = %for.inc24, %for.end
  %6 = load ptr, ptr %qemu_lockable_auto4, align 8
  %tobool15 = icmp ne ptr %6, null
  br i1 %tobool15, label %for.body16, label %for.cond.cleanup

for.cond.cleanup:                                 ; preds = %for.cond14
  call void @glib_autoptr_cleanup_QemuLockable(ptr noundef %qemu_lockable_auto4)
  br label %for.end25

for.body16:                                       ; preds = %for.cond14
  %call17 = call ptr @block_job_next_locked(ptr noundef null)
  store ptr %call17, ptr %job, align 8
  br label %for.cond18

for.cond18:                                       ; preds = %for.inc21, %for.body16
  %7 = load ptr, ptr %job, align 8
  %tobool19 = icmp ne ptr %7, null
  br i1 %tobool19, label %for.body20, label %for.end23

for.body20:                                       ; preds = %for.cond18
  %8 = load ptr, ptr %job, align 8
  call void @block_job_iostatus_reset_locked(ptr noundef %8)
  br label %for.inc21

for.inc21:                                        ; preds = %for.body20
  %9 = load ptr, ptr %job, align 8
  %call22 = call ptr @block_job_next_locked(ptr noundef %9)
  store ptr %call22, ptr %job, align 8
  br label %for.cond18, !llvm.loop !7

for.end23:                                        ; preds = %for.cond18
  br label %for.inc24

for.inc24:                                        ; preds = %for.end23
  %10 = load ptr, ptr %qemu_lockable_auto4, align 8
  call void @qemu_lockable_auto_unlock(ptr noundef %10)
  store ptr null, ptr %qemu_lockable_auto4, align 8
  br label %for.cond14, !llvm.loop !8

for.end25:                                        ; preds = %for.cond.cleanup
  call void @bdrv_activate_all(ptr noundef %local_err)
  %11 = load ptr, ptr %local_err, align 8
  %tobool26 = icmp ne ptr %11, null
  br i1 %tobool26, label %if.then27, label %if.end28

if.then27:                                        ; preds = %for.end25
  %12 = load ptr, ptr %errp.addr, align 8
  %13 = load ptr, ptr %local_err, align 8
  call void @error_propagate(ptr noundef %12, ptr noundef %13)
  br label %if.end32

if.end28:                                         ; preds = %for.end25
  %call29 = call zeroext i1 @runstate_check(i32 noundef 1)
  br i1 %call29, label %if.then30, label %if.else31

if.then30:                                        ; preds = %if.end28
  store i32 1, ptr @autostart, align 4
  br label %if.end32

if.else31:                                        ; preds = %if.end28
  call void @vm_start()
  br label %if.end32

if.end32:                                         ; preds = %if.else31, %if.then30, %if.then27, %if.then7, %if.then4, %if.then2, %if.then
  ret void
}