; Function Attrs: nounwind sspstrong uwtable
define dso_local void @qmp_cont(ptr noundef %errp) local_unnamed_addr #0 {
entry:
  %local_err = alloca ptr, align 8
  store ptr null, ptr %local_err, align 8
  %call = tail call zeroext i1 @qemu_system_dump_in_progress() #6
  br i1 %call, label %if.then, label %if.end

if.then:                                          ; preds = %entry
  tail call void (ptr, ptr, i32, ptr, ptr, ...) @error_setg_internal(ptr noundef %errp, ptr noundef nonnull @.str, i32 noundef 75, ptr noundef nonnull @__func__.qmp_cont, ptr noundef nonnull @.str.1) #6
  br label %if.end32

if.end:                                           ; preds = %entry
  %call1 = tail call zeroext i1 @runstate_needs_reset() #6
  br i1 %call1, label %if.then2, label %if.else

if.then2:                                         ; preds = %if.end
  tail call void (ptr, ptr, i32, ptr, ptr, ...) @error_setg_internal(ptr noundef %errp, ptr noundef nonnull @.str, i32 noundef 80, ptr noundef nonnull @__func__.qmp_cont, ptr noundef nonnull @.str.2) #6
  br label %if.end32

if.else:                                          ; preds = %if.end
  %call3 = tail call zeroext i1 @runstate_check(i32 noundef 12) #6
  br i1 %call3, label %if.end32, label %if.else5

if.else5:                                         ; preds = %if.else
  %call6 = tail call zeroext i1 @runstate_check(i32 noundef 7) #6
  br i1 %call6, label %if.then7, label %if.end10

if.then7:                                         ; preds = %if.else5
  tail call void (ptr, ptr, i32, ptr, ptr, ...) @error_setg_internal(ptr noundef %errp, ptr noundef nonnull @.str, i32 noundef 85, ptr noundef nonnull @__func__.qmp_cont, ptr noundef nonnull @.str.3) #6
  br label %if.end32

if.end10:                                         ; preds = %if.else5
  %call11 = tail call ptr @blk_next(ptr noundef null) #6
  %tobool.not10 = icmp eq ptr %call11, null
  br i1 %tobool.not10, label %for.body16.us, label %for.body

for.body:                                         ; preds = %if.end10, %for.body
  %blk.011 = phi ptr [ %call12, %for.body ], [ %call11, %if.end10 ]
  tail call void @blk_iostatus_reset(ptr noundef nonnull %blk.011) #6
  %call12 = tail call ptr @blk_next(ptr noundef nonnull %blk.011) #6
  %tobool.not = icmp eq ptr %call12, null
  br i1 %tobool.not, label %for.body16.us, label %for.body, !llvm.loop !5

for.body16.us:                                    ; preds = %for.body, %if.end10
  %0 = load atomic i64, ptr @qemu_mutex_lock_func monotonic, align 8
  %1 = inttoptr i64 %0 to ptr
  tail call void %1(ptr noundef nonnull @job_mutex, ptr noundef nonnull @.str.13, i32 noundef 122) #6
  %call17.us = tail call ptr @block_job_next_locked(ptr noundef null) #6
  %tobool19.not12.us = icmp eq ptr %call17.us, null
  br i1 %tobool19.not12.us, label %qemu_lockable_auto_unlock.exit.us, label %for.body20.us

for.body20.us:                                    ; preds = %for.body16.us, %for.body20.us
  %job.013.us = phi ptr [ %call22.us, %for.body20.us ], [ %call17.us, %for.body16.us ]
  tail call void @block_job_iostatus_reset_locked(ptr noundef nonnull %job.013.us) #6
  %call22.us = tail call ptr @block_job_next_locked(ptr noundef nonnull %job.013.us) #6
  %tobool19.not.us = icmp eq ptr %call22.us, null
  br i1 %tobool19.not.us, label %qemu_lockable_auto_unlock.exit.us, label %for.body20.us, !llvm.loop !7

qemu_lockable_auto_unlock.exit.us:                ; preds = %for.body20.us, %for.body16.us
  tail call void @qemu_mutex_unlock_impl(ptr noundef nonnull @job_mutex, ptr noundef nonnull @.str.13, i32 noundef 132) #6
  call void @bdrv_activate_all(ptr noundef nonnull %local_err) #6
  %2 = load ptr, ptr %local_err, align 8
  %tobool26.not = icmp eq ptr %2, null
  br i1 %tobool26.not, label %if.end28, label %if.then27

if.then27:                                        ; preds = %qemu_lockable_auto_unlock.exit.us
  call void @error_propagate(ptr noundef %errp, ptr noundef nonnull %2) #6
  br label %if.end32

if.end28:                                         ; preds = %qemu_lockable_auto_unlock.exit.us
  %call29 = call zeroext i1 @runstate_check(i32 noundef 1) #6
  br i1 %call29, label %if.then30, label %if.else31

if.then30:                                        ; preds = %if.end28
  store i32 1, ptr @autostart, align 4
  br label %if.end32

if.else31:                                        ; preds = %if.end28
  call void @vm_start() #6
  br label %if.end32

if.end32:                                         ; preds = %if.else, %if.else31, %if.then30, %if.then27, %if.then7, %if.then2, %if.then
  ret void
}